 hello

 Timestamp is 67a4d32c (Thu Feb  6 17:20:12 2025)

 Preferred load address is 00400000

 Start         Length     Name                   Class
 0001:00000000 000003acH .text$mn                CODE
 0001:000003ac 00000444H .text$mn$cpp            CODE
 0001:000007f0 00000020H .text$mn$cpp$r          CODE
 0001:00000810 000007f0H .text$mn$cpp$s          CODE
 0001:00001000 00000140H .text$mn$cpp$u          CODE
 0001:00001140 00000000H .text$mn$cpp$v          CODE
 0001:00001140 00000006H .text$nm                CODE
 0001:00001146 000000f5H .text$zz                CODE
 0002:00000000 00000000H .idata$5                DATA
 0002:00000000 000000bcH .rdata                  DATA
 0002:000000bc 00000000H .edata                  DATA
 0002:000000bc 00000068H .rdata$zzzdbg           DATA
 0002:00000124 00000000H .idata$2                DATA
 0002:00000124 00000000H .idata$3                DATA
 0002:00000124 00000000H .idata$4                DATA
 0002:00000124 00000000H .idata$6                DATA
 0003:00000000 00000000H .data                   DATA
 0003:00000000 00000008H .bss                    DATA

  Address         Publics by Value              Rva+Base       Lib:Object

 0000:00000000       ___AbsoluteZero            00000000     <absolute>
 0000:00000000       ___arm64x_extra_rfe_table  00000000     <absolute>
 0000:00000000       ___arm64x_extra_rfe_table_size 00000000     <absolute>
 0000:00000000       ___arm64x_native_entrypoint 00000000     <absolute>
 0000:00000000       ___arm64x_redirection_metadata 00000000     <absolute>
 0000:00000000       ___arm64x_redirection_metadata_count 00000000     <absolute>
 0000:00000000       ___dynamic_value_reloc_table 00000000     <absolute>
 0000:00000000       ___enclave_config          00000000     <absolute>
 0000:00000000       ___guard_check_icall_a64n_fptr 00000000     <absolute>
 0000:00000000       ___guard_eh_cont_count     00000000     <absolute>
 0000:00000000       ___guard_eh_cont_table     00000000     <absolute>
 0000:00000000       ___guard_fids_count        00000000     <absolute>
 0000:00000000       ___guard_fids_table        00000000     <absolute>
 0000:00000000       ___guard_flags             00000000     <absolute>
 0000:00000000       ___guard_iat_count         00000000     <absolute>
 0000:00000000       ___guard_iat_table         00000000     <absolute>
 0000:00000000       ___guard_longjmp_count     00000000     <absolute>
 0000:00000000       ___guard_longjmp_table     00000000     <absolute>
 0000:00000000       ___hybrid_auxiliary_delayload_iat 00000000     <absolute>
 0000:00000000       ___hybrid_auxiliary_delayload_iat_copy 00000000     <absolute>
 0000:00000000       ___hybrid_auxiliary_iat    00000000     <absolute>
 0000:00000000       ___hybrid_auxiliary_iat_copy 00000000     <absolute>
 0000:00000000       ___hybrid_code_map         00000000     <absolute>
 0000:00000000       ___hybrid_code_map_count   00000000     <absolute>
 0000:00000000       ___hybrid_image_info_bitfield 00000000     <absolute>
 0000:00000000       ___volatile_metadata       00000000     <absolute>
 0000:00000000       ___x64_code_ranges_to_entry_points 00000000     <absolute>
 0000:00000000       ___x64_code_ranges_to_entry_points_count 00000000     <absolute>
 0000:00000000       ___ImageBase               00400000     <linker-defined>
 0001:00000000       ?epASM@@YGXXZ              00401000 f   x86.obj
 0001:00000037       ?__Address@@YIPAXPBX@Z     00401037 f   x86.obj
 0001:0000004a       __alloca_probe             0040104a f   x86.obj
 0001:0000004a       __chkstk                   0040104a f   x86.obj
 0001:000000c2       @DnsMapRcodeToStatus@4     004010c2 f   x86.obj
 0001:000000e3       @DnsStatusString@4         004010e3 f   x86.obj
 0001:00000104       _GetTickCount@0            00401104 f   x86.obj
 0001:00000125       _FormatMessageW@28         00401125 f   x86.obj
 0001:00000146       _IsProcessCritical@8       00401146 f   x86.obj
 0001:00000167       _ExitProcess@4             00401167 f   x86.obj
 0001:00000188       ?GetMartaExtensionInterface@@YGPAU_ACC_MARTA_FUNCTIONS@@XZ 00401188 f   x86.obj
 0001:000001a9       _MessageBoxW@16            004011a9 f   x86.obj
 0001:000001ca       _DbgPrint                  004011ca f   x86.obj
 0001:000001eb       __vsnwprintf               004011eb f   x86.obj
 0001:0000020c       _RtlDispatchAPC@12         0040120c f   x86.obj
 0001:0000022d       _LdrGetProcedureAddress@16 0040122d f   x86.obj
 0001:0000024e       _RtlInitAnsiString@8       0040124e f   x86.obj
 0001:0000026f       _RtlMultiByteToUnicodeN@20 0040126f f   x86.obj
 0001:00000290       _RtlMultiByteToUnicodeSize@12 00401290 f   x86.obj
 0001:000002b1       _LdrLoadDll@16             004012b1 f   x86.obj
 0001:000002d2       _RtlInitUnicodeString@8    004012d2 f   x86.obj
 0001:000002f3       _CoCreateInstance@20       004012f3 f   x86.obj
 0001:00000314       _CoInitializeEx@8          00401314 f   x86.obj
 0001:00000335       _CoTaskMemFree@4           00401335 f   x86.obj
 0001:00000356       _CoUninitialize@0          00401356 f   x86.obj
 0001:00000380       __alloca_probe_16          00401380 f   ntdllp:alloca16.obj
 0001:00000396       __alloca_probe_8           00401396     ntdllp:alloca16.obj
 0001:000003ac       ?MsgBox@@YAHIPB_W0ZZ       004013ac f   ep.obj
 0001:000003fe       ?ApcTest@@YGXK@Z           004013fe f   ep.obj
 0001:00000460       ?ComTest@@YGXXZ            00401460 f   ep.obj
 0001:00000572       ?ep@@YGXXZ                 00401572 f   ep.obj
 0001:000005dc       ?GetNtBase@@YGPAXXZ        004015dc f   ScEntry:GetFuncAddr.obj
 0001:000005ef       ?HashString@@YGKPBDK@Z     004015ef f   ScEntry:GetFuncAddr.obj
 0001:00000607       ?get_hmod@@YIPAXPB_W@Z     00401607 f   ScEntry:GetFuncAddr.obj
 0001:00000651       ?GetFuncAddressEx@@YIPAXPAU_IMAGE_DOS_HEADER@@K@Z 00401651 f   ScEntry:GetFuncAddr.obj
 0001:000007f0       __GUID_dc1c5a9c_e88a_4dde_a5a1_60f82a20aef7 004017f0     ep.obj
 0001:00000800       __GUID_d57c7288_d4ad_4768_be02_9d969532d960 00401800     ep.obj
 0001:00000810       ??_C@_0O@HELLMLPH@ApcTest?$CI?$CFp?$CJ?$AN?6@FNODOBFM@ 00401810     ep.obj
 0001:00000820       ??_C@_1CM@CPCCPABF@?$AA?$CF?$AAu?$AA?3?$AA?$FL?$AA?$CF?$AAh?$AAs?$AA?$FN?$AA?$AN?$AA?6?$AAe?$AAn?$AAt?$AAr?$AAy@FNODOBFM@ 00401820     ep.obj
 0001:00000850       ??_C@_1M@BOLMKKCK@?$AAH?$AAe?$AAl?$AAl?$AAo@FNODOBFM@ 00401850     ep.obj
 0001:00000860       ??_C@_17NCBHHMJ@?$AAC?$AAo?$AAm@FNODOBFM@ 00401860     ep.obj
 0001:00000870       ??_C@_1BI@NOFJEJPO@?$AAt?$AAa?$AAb?$AAl?$AAe?$AA?5?$AAa?$AAt?$AA?5?$AA?$CF?$AAp@FNODOBFM@ 00401870     ep.obj
 0001:00000890       ??_C@_1O@ONGICPAA@?$AAM?$AAa?$AAr?$AAt?$AAa?$AA?3@FNODOBFM@ 00401890     ep.obj
 0001:00001140       ?sc_end@@YGPAXXZ           00402140 f   ScEntry:prepare.obj
 0001:00001146       ?ScEntry@@YGXPAU_PEB@@@Z   00402146 f   ScEntry:prepare.obj
 0002:00000000       ??_C@_0BF@EKFKPNAI@RtlInitUnicodeString@ 00403000     ScEntry:prepare.obj
 0002:00000018       ??_C@_1BI@NEOFKCPM@?$AAp?$AAr?$AAe?$AAp?$AAa?$AAr?$AAe?$AA?4?$AAd?$AAl?$AAl@ 00403018     ScEntry:prepare.obj
 0002:00000030       ??_C@_0L@HOFGLFDL@LdrLoadDll@ 00403030     ScEntry:prepare.obj
 0002:00000040       ??_C@_0BH@GKPJJDBO@LdrGetProcedureAddress@ 00403040     ScEntry:prepare.obj
 0002:00000058       ??_C@_0N@FIGJGHFN@LdrUnloadDll@ 00403058     ScEntry:prepare.obj
 0002:00000070       ??_C@_0BD@JDDPIELM@RtlExitUserProcess@ 00403070     ScEntry:prepare.obj
 0003:00000000       ___@@_PchSym_@00@UfhvihUsziibUwlxfnvmghUtrgsfyUhxPwvnlUgnkUdrmDCUivovzhvUsvoolUhgwzucOlyq@4B2008FD98C1DD4 00404000     stdafx.obj
 0003:00000004       ___@@_PchSym_@00@UfhvihUsziibUwlxfnvmghUtrgsfyUhxPwvnlUgnkUdrmDCUivovzhvUhxvmgibUhgwzucOlyq@4B2008FD98C1DD4 00404004     ScEntry:stdafx.obj

 entry point at        0001:00001146

 Static symbols

 0000:ffffa000       .debug$S                   00400000     ntdllp:ntdll.dll
 0000:ffffa000       .debug$S                   00400000     ntdllp:ntdll.dll
 0002:ffffd000       .idata$6                   00400000     ntdllp:ntdll.dll
 0001:0000000a       common_imp_call            0040100a f   x86.obj
 0001:00000075       protect                    00401075 f   x86.obj
 0001:00000380       $$000000                   00401380     ntdllp:alloca16.obj
 0001:00001000       ?@DnsMapRcodeToStatus@4    00402000     x86.obj
 0001:00001000       @imp_begin@                00402000     x86.obj
 0001:00001008       ?@DnsStatusString@4        00402008     x86.obj
 0001:00001010       @dnsapi                    00402010     x86.obj
 0001:0000102c       ?_GetTickCount@0           0040202c     x86.obj
 0001:00001034       ?_FormatMessageW@28        00402034     x86.obj
 0001:0000103c       ?_IsProcessCritical@8      0040203c     x86.obj
 0001:00001044       ?_ExitProcess@4            00402044     x86.obj
 0001:0000104c       @kernel32                  0040204c     x86.obj
 0001:0000106c       ??GetMartaExtensionInterface@@YGPAU_ACC_MARTA_FUNCTIONS@@XZ 0040206c     x86.obj
 0001:00001074       @ntmarta                   00402074     x86.obj
 0001:00001090       ?_MessageBoxW@16           00402090     x86.obj
 0001:00001098       @user32                    00402098     x86.obj
 0001:000010b4       ?_DbgPrint                 004020b4     x86.obj
 0001:000010bc       ?__vsnwprintf              004020bc     x86.obj
 0001:000010c4       ?_RtlDispatchAPC@12        004020c4     x86.obj
 0001:000010cc       ?_LdrGetProcedureAddress@16 004020cc     x86.obj
 0001:000010d4       ?_RtlInitAnsiString@8      004020d4     x86.obj
 0001:000010dc       ?_RtlMultiByteToUnicodeN@20 004020dc     x86.obj
 0001:000010e4       ?_RtlMultiByteToUnicodeSize@12 004020e4     x86.obj
 0001:000010ec       ?_LdrLoadDll@16            004020ec     x86.obj
 0001:000010f4       ?_RtlInitUnicodeString@8   004020f4     x86.obj
 0001:000010fc       @ntdllp                    004020fc     x86.obj
 0001:00001104       ?_CoCreateInstance@20      00402104     x86.obj
 0001:0000110c       ?_CoInitializeEx@8         0040210c     x86.obj
 0001:00001114       ?_CoTaskMemFree@4          00402114     x86.obj
 0001:0000111c       ?_CoUninitialize@0         0040211c     x86.obj
 0001:00001124       @ole32                     00402124     x86.obj
